target datalayout = "e-m:e-p270:32:32-p271:32:32-p272:64:64-i64:64-i128:128-f80:128-n8:16:32:64-S128"
target triple = "x86_64-pc-linux-gnu"

@subpel_filters = internal constant [7 x [6 x i8]] [[6 x i8] c"\00\06{\0C\01\00", [6 x i8] c"\02\0Bl$\08\01", [6 x i8] c"\00\09]2\06\00", [6 x i8] c"\03\10MM\10\03", [6 x i8] c"\00\062]\09\00", [6 x i8] c"\01\08$l\0B\02", [6 x i8] c"\00\01\0C{\06\00"], align 16
@ff_crop_tab = external hidden constant [2304 x i8], align 16

; Function Attrs: nounwind uwtable
define internal void @put_vp8_epel8_h4v4_c(ptr noundef %0, i64 noundef %1, ptr noundef %2, i64 noundef %3, i32 noundef %4, i32 noundef %5, i32 noundef %6) #1 {
  %8 = alloca ptr, align 8
  %9 = alloca i64, align 8
  %10 = alloca ptr, align 8
  %11 = alloca i64, align 8
  %12 = alloca i32, align 4
  %13 = alloca i32, align 4
  %14 = alloca i32, align 4
  %15 = alloca ptr, align 8
  %16 = alloca ptr, align 8
  %17 = alloca i32, align 4
  %18 = alloca i32, align 4
  %19 = alloca [152 x i8], align 16
  %20 = alloca ptr, align 8
  store ptr %0, ptr %8, align 8, !tbaa !10
  store i64 %1, ptr %9, align 8, !tbaa !12
  store ptr %2, ptr %10, align 8, !tbaa !10
  store i64 %3, ptr %11, align 8, !tbaa !12
  store i32 %4, ptr %12, align 4, !tbaa !14
  store i32 %5, ptr %13, align 4, !tbaa !14
  store i32 %6, ptr %14, align 4, !tbaa !14
  call void @llvm.lifetime.start.p0(i64 8, ptr %15) #6
  %21 = load i32, ptr %13, align 4, !tbaa !14
  %22 = sub nsw i32 %21, 1
  %23 = sext i32 %22 to i64
  %24 = getelementptr inbounds [7 x [6 x i8]], ptr @subpel_filters, i64 0, i64 %23
  %25 = getelementptr inbounds [6 x i8], ptr %24, i64 0, i64 0
  store ptr %25, ptr %15, align 8, !tbaa !10
  call void @llvm.lifetime.start.p0(i64 8, ptr %16) #6
  store ptr getelementptr inbounds (i8, ptr @ff_crop_tab, i64 1024), ptr %16, align 8, !tbaa !10
  call void @llvm.lifetime.start.p0(i64 4, ptr %17) #6
  call void @llvm.lifetime.start.p0(i64 4, ptr %18) #6
  call void @llvm.lifetime.start.p0(i64 152, ptr %19) #6
  call void @llvm.lifetime.start.p0(i64 8, ptr %20) #6
  %26 = getelementptr inbounds [152 x i8], ptr %19, i64 0, i64 0
  store ptr %26, ptr %20, align 8, !tbaa !10
  %27 = load i64, ptr %11, align 8, !tbaa !12
  %28 = mul nsw i64 1, %27
  %29 = load ptr, ptr %10, align 8, !tbaa !10
  %30 = sub i64 0, %28
  %31 = getelementptr inbounds i8, ptr %29, i64 %30
  store ptr %31, ptr %10, align 8, !tbaa !10
  store i32 0, ptr %18, align 4, !tbaa !14
  br label %32

32:                                               ; preds = %113, %7
  %33 = load i32, ptr %18, align 4, !tbaa !14
  %34 = load i32, ptr %12, align 4, !tbaa !14
  %35 = add nsw i32 %34, 4
  %36 = sub nsw i32 %35, 1
  %37 = icmp slt i32 %33, %36
  br i1 %37, label %38, label %116

38:                                               ; preds = %32
  store i32 0, ptr %17, align 4, !tbaa !14
  br label %39

39:                                               ; preds = %104, %38
  %40 = load i32, ptr %17, align 4, !tbaa !14
  %41 = icmp slt i32 %40, 8
  br i1 %41, label %42, label %107

42:                                               ; preds = %39
  %43 = load ptr, ptr %16, align 8, !tbaa !10
  %44 = load ptr, ptr %15, align 8, !tbaa !10
  %45 = getelementptr inbounds i8, ptr %44, i64 2
  %46 = load i8, ptr %45, align 1, !tbaa !18
  %47 = zext i8 %46 to i32
  %48 = load ptr, ptr %10, align 8, !tbaa !10
  %49 = load i32, ptr %17, align 4, !tbaa !14
  %50 = add nsw i32 %49, 0
  %51 = sext i32 %50 to i64
  %52 = getelementptr inbounds i8, ptr %48, i64 %51
  %53 = load i8, ptr %52, align 1, !tbaa !18
  %54 = zext i8 %53 to i32
  %55 = mul nsw i32 %47, %54
  %56 = load ptr, ptr %15, align 8, !tbaa !10
  %57 = getelementptr inbounds i8, ptr %56, i64 1
  %58 = load i8, ptr %57, align 1, !tbaa !18
  %59 = zext i8 %58 to i32
  %60 = load ptr, ptr %10, align 8, !tbaa !10
  %61 = load i32, ptr %17, align 4, !tbaa !14
  %62 = sub nsw i32 %61, 1
  %63 = sext i32 %62 to i64
  %64 = getelementptr inbounds i8, ptr %60, i64 %63
  %65 = load i8, ptr %64, align 1, !tbaa !18
  %66 = zext i8 %65 to i32
  %67 = mul nsw i32 %59, %66
  %68 = sub nsw i32 %55, %67
  %69 = load ptr, ptr %15, align 8, !tbaa !10
  %70 = getelementptr inbounds i8, ptr %69, i64 3
  %71 = load i8, ptr %70, align 1, !tbaa !18
  %72 = zext i8 %71 to i32
  %73 = load ptr, ptr %10, align 8, !tbaa !10
  %74 = load i32, ptr %17, align 4, !tbaa !14
  %75 = add nsw i32 %74, 1
  %76 = sext i32 %75 to i64
  %77 = getelementptr inbounds i8, ptr %73, i64 %76
  %78 = load i8, ptr %77, align 1, !tbaa !18
  %79 = zext i8 %78 to i32
  %80 = mul nsw i32 %72, %79
  %81 = add nsw i32 %68, %80
  %82 = load ptr, ptr %15, align 8, !tbaa !10
  %83 = getelementptr inbounds i8, ptr %82, i64 4
  %84 = load i8, ptr %83, align 1, !tbaa !18
  %85 = zext i8 %84 to i32
  %86 = load ptr, ptr %10, align 8, !tbaa !10
  %87 = load i32, ptr %17, align 4, !tbaa !14
  %88 = add nsw i32 %87, 2
  %89 = sext i32 %88 to i64
  %90 = getelementptr inbounds i8, ptr %86, i64 %89
  %91 = load i8, ptr %90, align 1, !tbaa !18
  %92 = zext i8 %91 to i32
  %93 = mul nsw i32 %85, %92
  %94 = sub nsw i32 %81, %93
  %95 = add nsw i32 %94, 64
  %96 = ashr i32 %95, 7
  %97 = sext i32 %96 to i64
  %98 = getelementptr inbounds i8, ptr %43, i64 %97
  %99 = load i8, ptr %98, align 1, !tbaa !18
  %100 = load ptr, ptr %20, align 8, !tbaa !10
  %101 = load i32, ptr %17, align 4, !tbaa !14
  %102 = sext i32 %101 to i64
  %103 = getelementptr inbounds i8, ptr %100, i64 %102
  store i8 %99, ptr %103, align 1, !tbaa !18
  br label %104

104:                                              ; preds = %42
  %105 = load i32, ptr %17, align 4, !tbaa !14
  %106 = add nsw i32 %105, 1
  store i32 %106, ptr %17, align 4, !tbaa !14
  br label %39, !llvm.loop !50

107:                                              ; preds = %39
  %108 = load ptr, ptr %20, align 8, !tbaa !10
  %109 = getelementptr inbounds i8, ptr %108, i64 8
  store ptr %109, ptr %20, align 8, !tbaa !10
  %110 = load i64, ptr %11, align 8, !tbaa !12
  %111 = load ptr, ptr %10, align 8, !tbaa !10
  %112 = getelementptr inbounds i8, ptr %111, i64 %110
  store ptr %112, ptr %10, align 8, !tbaa !10
  br label %113

113:                                              ; preds = %107
  %114 = load i32, ptr %18, align 4, !tbaa !14
  %115 = add nsw i32 %114, 1
  store i32 %115, ptr %18, align 4, !tbaa !14
  br label %32, !llvm.loop !51

116:                                              ; preds = %32
  %117 = getelementptr inbounds [152 x i8], ptr %19, i64 0, i64 0
  %118 = getelementptr inbounds i8, ptr %117, i64 8
  store ptr %118, ptr %20, align 8, !tbaa !10
  %119 = load i32, ptr %14, align 4, !tbaa !14
  %120 = sub nsw i32 %119, 1
  %121 = sext i32 %120 to i64
  %122 = getelementptr inbounds [7 x [6 x i8]], ptr @subpel_filters, i64 0, i64 %121
  %123 = getelementptr inbounds [6 x i8], ptr %122, i64 0, i64 0
  store ptr %123, ptr %15, align 8, !tbaa !10
  store i32 0, ptr %18, align 4, !tbaa !14
  br label %124

124:                                              ; preds = %203, %116
  %125 = load i32, ptr %18, align 4, !tbaa !14
  %126 = load i32, ptr %12, align 4, !tbaa !14
  %127 = icmp slt i32 %125, %126
  br i1 %127, label %128, label %206

128:                                              ; preds = %124
  store i32 0, ptr %17, align 4, !tbaa !14
  br label %129

129:                                              ; preds = %194, %128
  %130 = load i32, ptr %17, align 4, !tbaa !14
  %131 = icmp slt i32 %130, 8
  br i1 %131, label %132, label %197

132:                                              ; preds = %129
  %133 = load ptr, ptr %16, align 8, !tbaa !10
  %134 = load ptr, ptr %15, align 8, !tbaa !10
  %135 = getelementptr inbounds i8, ptr %134, i64 2
  %136 = load i8, ptr %135, align 1, !tbaa !18
  %137 = zext i8 %136 to i32
  %138 = load ptr, ptr %20, align 8, !tbaa !10
  %139 = load i32, ptr %17, align 4, !tbaa !14
  %140 = add nsw i32 %139, 0
  %141 = sext i32 %140 to i64
  %142 = getelementptr inbounds i8, ptr %138, i64 %141
  %143 = load i8, ptr %142, align 1, !tbaa !18
  %144 = zext i8 %143 to i32
  %145 = mul nsw i32 %137, %144
  %146 = load ptr, ptr %15, align 8, !tbaa !10
  %147 = getelementptr inbounds i8, ptr %146, i64 1
  %148 = load i8, ptr %147, align 1, !tbaa !18
  %149 = zext i8 %148 to i32
  %150 = load ptr, ptr %20, align 8, !tbaa !10
  %151 = load i32, ptr %17, align 4, !tbaa !14
  %152 = sub nsw i32 %151, 8
  %153 = sext i32 %152 to i64
  %154 = getelementptr inbounds i8, ptr %150, i64 %153
  %155 = load i8, ptr %154, align 1, !tbaa !18
  %156 = zext i8 %155 to i32
  %157 = mul nsw i32 %149, %156
  %158 = sub nsw i32 %145, %157
  %159 = load ptr, ptr %15, align 8, !tbaa !10
  %160 = getelementptr inbounds i8, ptr %159, i64 3
  %161 = load i8, ptr %160, align 1, !tbaa !18
  %162 = zext i8 %161 to i32
  %163 = load ptr, ptr %20, align 8, !tbaa !10
  %164 = load i32, ptr %17, align 4, !tbaa !14
  %165 = add nsw i32 %164, 8
  %166 = sext i32 %165 to i64
  %167 = getelementptr inbounds i8, ptr %163, i64 %166
  %168 = load i8, ptr %167, align 1, !tbaa !18
  %169 = zext i8 %168 to i32
  %170 = mul nsw i32 %162, %169
  %171 = add nsw i32 %158, %170
  %172 = load ptr, ptr %15, align 8, !tbaa !10
  %173 = getelementptr inbounds i8, ptr %172, i64 4
  %174 = load i8, ptr %173, align 1, !tbaa !18
  %175 = zext i8 %174 to i32
  %176 = load ptr, ptr %20, align 8, !tbaa !10
  %177 = load i32, ptr %17, align 4, !tbaa !14
  %178 = add nsw i32 %177, 16
  %179 = sext i32 %178 to i64
  %180 = getelementptr inbounds i8, ptr %176, i64 %179
  %181 = load i8, ptr %180, align 1, !tbaa !18
  %182 = zext i8 %181 to i32
  %183 = mul nsw i32 %175, %182
  %184 = sub nsw i32 %171, %183
  %185 = add nsw i32 %184, 64
  %186 = ashr i32 %185, 7
  %187 = sext i32 %186 to i64
  %188 = getelementptr inbounds i8, ptr %133, i64 %187
  %189 = load i8, ptr %188, align 1, !tbaa !18
  %190 = load ptr, ptr %8, align 8, !tbaa !10
  %191 = load i32, ptr %17, align 4, !tbaa !14
  %192 = sext i32 %191 to i64
  %193 = getelementptr inbounds i8, ptr %190, i64 %192
  store i8 %189, ptr %193, align 1, !tbaa !18
  br label %194

194:                                              ; preds = %132
  %195 = load i32, ptr %17, align 4, !tbaa !14
  %196 = add nsw i32 %195, 1
  store i32 %196, ptr %17, align 4, !tbaa !14
  br label %129, !llvm.loop !52

197:                                              ; preds = %129
  %198 = load i64, ptr %9, align 8, !tbaa !12
  %199 = load ptr, ptr %8, align 8, !tbaa !10
  %200 = getelementptr inbounds i8, ptr %199, i64 %198
  store ptr %200, ptr %8, align 8, !tbaa !10
  %201 = load ptr, ptr %20, align 8, !tbaa !10
  %202 = getelementptr inbounds i8, ptr %201, i64 8
  store ptr %202, ptr %20, align 8, !tbaa !10
  br label %203

203:                                              ; preds = %197
  %204 = load i32, ptr %18, align 4, !tbaa !14
  %205 = add nsw i32 %204, 1
  store i32 %205, ptr %18, align 4, !tbaa !14
  br label %124, !llvm.loop !53

206:                                              ; preds = %124
  call void @llvm.lifetime.end.p0(i64 8, ptr %20) #6
  call void @llvm.lifetime.end.p0(i64 152, ptr %19) #6
  call void @llvm.lifetime.end.p0(i64 4, ptr %18) #6
  call void @llvm.lifetime.end.p0(i64 4, ptr %17) #6
  call void @llvm.lifetime.end.p0(i64 8, ptr %16) #6
  call void @llvm.lifetime.end.p0(i64 8, ptr %15) #6
  ret void
}